; Function Attrs: mustprogress uwtable
define hidden void @_ZN11th_rewriterclER7obj_refI4expr11ast_managerE(ptr nocapture noundef nonnull readonly align 8 dereferenceable(16) %this, ptr nocapture noundef nonnull align 8 dereferenceable(16) %term) local_unnamed_addr #3 align 2 personality ptr @__gxx_personality_v0 {
entry:
  %result = alloca %class.obj_ref, align 8
  %m_manager.i = getelementptr inbounds i8, ptr %term, i64 8
  %0 = load ptr, ptr %m_manager.i, align 8
  store ptr null, ptr %result, align 8
  %m_manager.i5 = getelementptr inbounds i8, ptr %result, i64 8
  store ptr %0, ptr %m_manager.i5, align 8
  %1 = load ptr, ptr %this, align 8
  %2 = load ptr, ptr %term, align 8
  %m_pr.i = getelementptr inbounds i8, ptr %1, i64 496
  invoke fastcc void @_ZN12rewriter_tplIN12_GLOBAL__N_115th_rewriter_cfgEEclEP4exprR7obj_refIS3_11ast_managerERS5_I3appS6_E(ptr noundef nonnull align 8 dereferenceable(536) %1, ptr noundef %2, ptr noundef nonnull align 8 dereferenceable(16) %result, ptr noundef nonnull align 8 dereferenceable(16) %m_pr.i)
          to label %invoke.cont3 unwind label %lpad

invoke.cont3:                                     ; preds = %entry
  %3 = load ptr, ptr %term, align 8
  %4 = load ptr, ptr %result, align 8
  store ptr %4, ptr %term, align 8
  %tobool.not.i.i.i = icmp eq ptr %3, null
  br i1 %tobool.not.i.i.i, label %_ZN7obj_refI4expr11ast_managerED2Ev.exit, label %if.then.i.i.i.i

if.then.i.i.i.i:                                  ; preds = %invoke.cont3
  %5 = load ptr, ptr %m_manager.i5, align 8
  %m_ref_count.i.i.i.i.i = getelementptr inbounds i8, ptr %3, i64 8
  %6 = load i32, ptr %m_ref_count.i.i.i.i.i, align 4
  %dec.i.i.i.i.i = add i32 %6, -1
  store i32 %dec.i.i.i.i.i, ptr %m_ref_count.i.i.i.i.i, align 4
  %cmp.i.i.i.i = icmp eq i32 %dec.i.i.i.i.i, 0
  br i1 %cmp.i.i.i.i, label %if.then2.i.i.i.i, label %_ZN7obj_refI4expr11ast_managerED2Ev.exit

if.then2.i.i.i.i:                                 ; preds = %if.then.i.i.i.i
  invoke void @_ZN11ast_manager11delete_nodeEP3ast(ptr noundef nonnull align 8 dereferenceable(976) %5, ptr noundef nonnull %3)
          to label %_ZN7obj_refI4expr11ast_managerED2Ev.exit unwind label %terminate.lpad.i

terminate.lpad.i:                                 ; preds = %if.then2.i.i.i.i
  %7 = landingpad { ptr, i32 }
          catch ptr null
  %8 = extractvalue { ptr, i32 } %7, 0
  tail call void @__clang_call_terminate(ptr %8) #19
  unreachable

lpad:                                             ; preds = %entry
  %9 = landingpad { ptr, i32 }
          catch ptr null
  %10 = extractvalue { ptr, i32 } %9, 0
  %11 = tail call ptr @__cxa_begin_catch(ptr %10) #18
  %12 = load ptr, ptr %m_manager.i, align 8
  %call2.i7 = invoke noundef zeroext i1 @_ZN8reslimit3incEv(ptr noundef nonnull align 8 dereferenceable(40) %12)
          to label %invoke.cont8 unwind label %lpad5

invoke.cont8:                                     ; preds = %lpad
  br i1 %call2.i7, label %if.end, label %if.then

if.then:                                          ; preds = %invoke.cont8
  invoke void @__cxa_end_catch()
          to label %cleanup unwind label %lpad10

lpad5:                                            ; preds = %lpad, %if.end
  %13 = landingpad { ptr, i32 }
          cleanup
  invoke void @__cxa_end_catch()
          to label %ehcleanup unwind label %terminate.lpad

if.end:                                           ; preds = %invoke.cont8
  invoke void @__cxa_rethrow() #20
          to label %unreachable unwind label %lpad5

lpad10:                                           ; preds = %if.then
  %14 = landingpad { ptr, i32 }
          cleanup
  br label %ehcleanup

cleanup:                                          ; preds = %if.then
  %.pr = load ptr, ptr %result, align 8
  %tobool.not.i.i = icmp eq ptr %.pr, null
  br i1 %tobool.not.i.i, label %_ZN7obj_refI4expr11ast_managerED2Ev.exit, label %if.then.i.i.i

if.then.i.i.i:                                    ; preds = %cleanup
  %15 = load ptr, ptr %m_manager.i5, align 8
  %m_ref_count.i.i.i.i = getelementptr inbounds i8, ptr %.pr, i64 8
  %16 = load i32, ptr %m_ref_count.i.i.i.i, align 4
  %dec.i.i.i.i = add i32 %16, -1
  store i32 %dec.i.i.i.i, ptr %m_ref_count.i.i.i.i, align 4
  %cmp.i.i.i = icmp eq i32 %dec.i.i.i.i, 0
  br i1 %cmp.i.i.i, label %if.then2.i.i.i, label %_ZN7obj_refI4expr11ast_managerED2Ev.exit

if.then2.i.i.i:                                   ; preds = %if.then.i.i.i
  invoke void @_ZN11ast_manager11delete_nodeEP3ast(ptr noundef nonnull align 8 dereferenceable(976) %15, ptr noundef nonnull %.pr)
          to label %_ZN7obj_refI4expr11ast_managerED2Ev.exit unwind label %terminate.lpad.i8

terminate.lpad.i8:                                ; preds = %if.then2.i.i.i
  %17 = landingpad { ptr, i32 }
          catch ptr null
  %18 = extractvalue { ptr, i32 } %17, 0
  tail call void @__clang_call_terminate(ptr %18) #19
  unreachable

_ZN7obj_refI4expr11ast_managerED2Ev.exit:         ; preds = %invoke.cont3, %if.then.i.i.i.i, %if.then2.i.i.i.i, %cleanup, %if.then.i.i.i, %if.then2.i.i.i
  ret void

ehcleanup:                                        ; preds = %lpad5, %lpad10
  %.pn = phi { ptr, i32 } [ %13, %lpad5 ], [ %14, %lpad10 ]
  call void @_ZN7obj_refI4expr11ast_managerED2Ev(ptr noundef nonnull align 8 dereferenceable(16) %result) #18
  resume { ptr, i32 } %.pn

terminate.lpad:                                   ; preds = %lpad5
  %19 = landingpad { ptr, i32 }
          catch ptr null
  %20 = extractvalue { ptr, i32 } %19, 0
  tail call void @__clang_call_terminate(ptr %20) #19
  unreachable

unreachable:                                      ; preds = %if.end
  unreachable
}